target datalayout = "e-m:e-p270:32:32-p271:32:32-p272:64:64-i64:64-i128:128-f80:128-n8:16:32:64-S128"
target triple = "x86_64-pc-linux-gnu"

%struct.persist_msg_t = type { ptr, ptr, i16 }
%struct.job_record = type { i32, ptr, ptr, ptr, ptr, i16, i32, i32, i32, ptr, i32, ptr, ptr, i16, ptr, double, i64, ptr, ptr, ptr, ptr, ptr, ptr, i32, ptr, i32, i64, i64, i32, i32, ptr, i16, i64, i64, i8, i32, ptr, ptr, ptr, ptr, ptr, ptr, ptr, ptr, i32, ptr, ptr, i32, ptr, i32, ptr, i32, ptr, i32, ptr, ptr, ptr, ptr, ptr, ptr, i32, i16, i64, ptr, ptr, ptr, ptr, %struct.acct_policy_limit_set_t, i16, ptr, ptr, ptr, ptr, ptr, i32, ptr, ptr, ptr, ptr, ptr, i32, i32, ptr, ptr, ptr, i16, ptr, ptr, i8, ptr, ptr, i64, i64, i8, i32, i32, i8, i32, ptr, i32, i64, i32, ptr, ptr, ptr, i8, i16, i64, i32, ptr, ptr, ptr, ptr, ptr, i16, i32, ptr, ptr, ptr, ptr, i32, ptr, i32, i16, i64, ptr, i32, i32, ptr, i64, ptr, ptr, i64, i32, i32, i64, i32, i32, ptr, ptr, ptr, ptr, ptr, ptr, ptr, ptr, ptr, ptr, ptr, ptr, i32, ptr, i16, i16, i16, i16, ptr, i32, i32, i8, i64 }
%struct.acct_policy_limit_set_t = type { i16, i16, ptr }
%struct.job_details_t = type { i32, ptr, i64, ptr, i32, ptr, i64, ptr, i16, i16, ptr, i16, i32, i32, i32, i16, ptr, i16, ptr, ptr, ptr, i16, ptr, ptr, ptr, ptr, i32, ptr, ptr, ptr, ptr, ptr, i32, i32, i32, ptr, ptr, i16, i32, i32, i32, i32, i32, i32, i16, i16, i32, i8, i8, i32, i32, i64, i64, i16, i32, ptr, ptr, i8, ptr, i32, ptr, i64, ptr, ptr, i16, i16, i16, i8, ptr, ptr, ptr, ptr, ptr, ptr, i64, i32, i32, i8, ptr, i16, ptr, ptr, i16 }
%struct.dbd_job_suspend_msg = type { i32, i64, i32, i32, i64, i64 }

; Function Attrs: nounwind uwtable
define dso_local i32 @jobacct_storage_p_suspend(ptr noundef %0, ptr noundef %1) #0 {
  %3 = alloca i32, align 4
  %4 = alloca ptr, align 8
  %5 = alloca ptr, align 8
  %6 = alloca %struct.persist_msg_t, align 8
  %7 = alloca %struct.dbd_job_suspend_msg, align 8
  %8 = alloca i32, align 4
  store ptr %0, ptr %4, align 8
  store ptr %1, ptr %5, align 8
  call void @llvm.lifetime.start.p0(i64 24, ptr %6) #9
  call void @llvm.memset.p0.i64(ptr align 8 %6, i8 0, i64 24, i1 false)
  call void @llvm.lifetime.start.p0(i64 40, ptr %7) #9
  call void @llvm.memset.p0.i64(ptr align 8 %7, i8 0, i64 40, i1 false)
  %9 = load ptr, ptr %5, align 8
  %10 = getelementptr inbounds nuw %struct.job_record, ptr %9, i32 0, i32 10
  %11 = load i32, ptr %10, align 8
  %12 = getelementptr inbounds nuw %struct.dbd_job_suspend_msg, ptr %7, i32 0, i32 0
  store i32 %11, ptr %12, align 8
  %13 = load ptr, ptr %5, align 8
  %14 = getelementptr inbounds nuw %struct.job_record, ptr %13, i32 0, i32 53
  %15 = load i32, ptr %14, align 8
  %16 = getelementptr inbounds nuw %struct.dbd_job_suspend_msg, ptr %7, i32 0, i32 2
  store i32 %15, ptr %16, align 8
  %17 = load ptr, ptr %5, align 8
  %18 = getelementptr inbounds nuw %struct.job_record, ptr %17, i32 0, i32 26
  %19 = load i64, ptr %18, align 8
  %20 = getelementptr inbounds nuw %struct.dbd_job_suspend_msg, ptr %7, i32 0, i32 1
  store i64 %19, ptr %20, align 8
  %21 = load ptr, ptr %5, align 8
  %22 = getelementptr inbounds nuw %struct.job_record, ptr %21, i32 0, i32 60
  %23 = load i32, ptr %22, align 8
  %24 = and i32 %23, 255
  %25 = getelementptr inbounds nuw %struct.dbd_job_suspend_msg, ptr %7, i32 0, i32 3
  store i32 %24, ptr %25, align 4
  %26 = load ptr, ptr %5, align 8
  %27 = getelementptr inbounds nuw %struct.job_record, ptr %26, i32 0, i32 107
  %28 = load i64, ptr %27, align 8
  %29 = icmp ne i64 %28, 0
  br i1 %29, label %30, label %35

30:                                               ; preds = %2
  %31 = load ptr, ptr %5, align 8
  %32 = getelementptr inbounds nuw %struct.job_record, ptr %31, i32 0, i32 107
  %33 = load i64, ptr %32, align 8
  %34 = getelementptr inbounds nuw %struct.dbd_job_suspend_msg, ptr %7, i32 0, i32 4
  store i64 %33, ptr %34, align 8
  br label %48

35:                                               ; preds = %2
  %36 = load ptr, ptr %5, align 8
  %37 = getelementptr inbounds nuw %struct.job_record, ptr %36, i32 0, i32 30
  %38 = load ptr, ptr %37, align 8
  %39 = icmp ne ptr %38, null
  br i1 %39, label %40, label %47

40:                                               ; preds = %35
  %41 = load ptr, ptr %5, align 8
  %42 = getelementptr inbounds nuw %struct.job_record, ptr %41, i32 0, i32 30
  %43 = load ptr, ptr %42, align 8
  %44 = getelementptr inbounds nuw %struct.job_details_t, ptr %43, i32 0, i32 74
  %45 = load i64, ptr %44, align 8
  %46 = getelementptr inbounds nuw %struct.dbd_job_suspend_msg, ptr %7, i32 0, i32 4
  store i64 %45, ptr %46, align 8
  br label %47

47:                                               ; preds = %40, %35
  br label %48

48:                                               ; preds = %47, %30
  %49 = load ptr, ptr %5, align 8
  %50 = getelementptr inbounds nuw %struct.job_record, ptr %49, i32 0, i32 129
  %51 = load i64, ptr %50, align 8
  %52 = getelementptr inbounds nuw %struct.dbd_job_suspend_msg, ptr %7, i32 0, i32 5
  store i64 %51, ptr %52, align 8
  %53 = getelementptr inbounds nuw %struct.persist_msg_t, ptr %6, i32 0, i32 2
  store i16 1427, ptr %53, align 8
  %54 = load ptr, ptr %4, align 8
  %55 = getelementptr inbounds nuw %struct.persist_msg_t, ptr %6, i32 0, i32 0
  store ptr %54, ptr %55, align 8
  %56 = getelementptr inbounds nuw %struct.persist_msg_t, ptr %6, i32 0, i32 1
  store ptr %7, ptr %56, align 8
  %57 = call i32 @slurmdbd_agent_send(i16 noundef zeroext 11008, ptr noundef %6)
  %58 = icmp slt i32 %57, 0
  br i1 %58, label %59, label %60

59:                                               ; preds = %48
  store i32 -1, ptr %3, align 4
  store i32 1, ptr %8, align 4
  br label %61

60:                                               ; preds = %48
  store i32 0, ptr %3, align 4
  store i32 1, ptr %8, align 4
  br label %61

61:                                               ; preds = %60, %59
  call void @llvm.lifetime.end.p0(i64 40, ptr %7) #9
  call void @llvm.lifetime.end.p0(i64 24, ptr %6) #9
  %62 = load i32, ptr %3, align 4
  ret i32 %62
}