; Function Attrs: nounwind uwtable
define dso_local range(i32 -1, 1) i32 @jobacct_storage_p_suspend(ptr noundef %0, ptr noundef readonly captures(none) %1) local_unnamed_addr #0 {
  %3 = alloca %struct.persist_msg_t, align 8
  %4 = alloca %struct.dbd_job_suspend_msg, align 8
  call void @llvm.lifetime.start.p0(i64 24, ptr nonnull %3) #11
  %5 = getelementptr inbounds nuw i8, ptr %3, i64 16
  store i64 0, ptr %5, align 8
  call void @llvm.lifetime.start.p0(i64 40, ptr nonnull %4) #11
  call void @llvm.memset.p0.i64(ptr noundef nonnull align 8 dereferenceable(40) %4, i8 0, i64 32, i1 false)
  %6 = getelementptr inbounds nuw i8, ptr %1, i64 64
  %7 = load i32, ptr %6, align 8
  store i32 %7, ptr %4, align 8
  %8 = getelementptr inbounds nuw i8, ptr %1, i64 392
  %9 = load i32, ptr %8, align 8
  %10 = getelementptr inbounds nuw i8, ptr %4, i64 16
  store i32 %9, ptr %10, align 8
  %11 = getelementptr inbounds nuw i8, ptr %1, i64 192
  %12 = load i64, ptr %11, align 8
  %13 = getelementptr inbounds nuw i8, ptr %4, i64 8
  store i64 %12, ptr %13, align 8
  %14 = getelementptr inbounds nuw i8, ptr %1, i64 448
  %15 = load i32, ptr %14, align 8
  %16 = and i32 %15, 255
  %17 = getelementptr inbounds nuw i8, ptr %4, i64 20
  store i32 %16, ptr %17, align 4
  %18 = getelementptr inbounds nuw i8, ptr %1, i64 792
  %19 = load i64, ptr %18, align 8
  %.not = icmp eq i64 %19, 0
  br i1 %.not, label %20, label %.sink.split

20:                                               ; preds = %2
  %21 = getelementptr inbounds nuw i8, ptr %1, i64 216
  %22 = load ptr, ptr %21, align 8
  %.not12 = icmp eq ptr %22, null
  br i1 %.not12, label %27, label %23

23:                                               ; preds = %20
  %24 = getelementptr inbounds nuw i8, ptr %22, i64 464
  %25 = load i64, ptr %24, align 8
  br label %.sink.split

.sink.split:                                      ; preds = %2, %23
  %.sink = phi i64 [ %25, %23 ], [ %19, %2 ]
  %26 = getelementptr inbounds nuw i8, ptr %4, i64 24
  store i64 %.sink, ptr %26, align 8
  br label %27

27:                                               ; preds = %.sink.split, %20
  %28 = getelementptr inbounds nuw i8, ptr %1, i64 944
  %29 = load i64, ptr %28, align 8
  %30 = getelementptr inbounds nuw i8, ptr %4, i64 32
  store i64 %29, ptr %30, align 8
  %31 = getelementptr inbounds nuw i8, ptr %3, i64 16
  store i16 1427, ptr %31, align 8
  store ptr %0, ptr %3, align 8
  %32 = getelementptr inbounds nuw i8, ptr %3, i64 8
  store ptr %4, ptr %32, align 8
  %33 = call i32 @slurmdbd_agent_send(i16 noundef zeroext 11008, ptr noundef nonnull %3) #11
  %.lobit = ashr i32 %33, 31
  call void @llvm.lifetime.end.p0(i64 40, ptr nonnull %4) #11
  call void @llvm.lifetime.end.p0(i64 24, ptr nonnull %3) #11
  ret i32 %.lobit
}